; Function Attrs: nounwind uwtable
define hidden void @SDL_SetGPUBufferName_REAL(ptr noundef readonly captures(address_is_null) %0, ptr noundef %1, ptr noundef %2) local_unnamed_addr #0 {
  %4 = icmp eq ptr %0, null
  br i1 %4, label %5, label %7

5:                                                ; preds = %3
  %6 = tail call zeroext i1 (ptr, ...) @SDL_SetError_REAL(ptr noundef nonnull @.str.3) #7
  br label %20

7:                                                ; preds = %3
  %8 = icmp eq ptr %1, null
  br i1 %8, label %9, label %11

9:                                                ; preds = %7
  %10 = tail call zeroext i1 (ptr, ...) @SDL_SetError_REAL(ptr noundef nonnull @.str.4, ptr noundef nonnull @.str.176) #7
  br label %20

11:                                               ; preds = %7
  %12 = icmp eq ptr %2, null
  br i1 %12, label %13, label %15

13:                                               ; preds = %11
  %14 = tail call zeroext i1 (ptr, ...) @SDL_SetError_REAL(ptr noundef nonnull @.str.4, ptr noundef nonnull @.str.177) #7
  br label %15

15:                                               ; preds = %13, %11
  %16 = getelementptr inbounds nuw i8, ptr %0, i64 72
  %17 = load ptr, ptr %16, align 8
  %18 = getelementptr inbounds nuw i8, ptr %0, i64 664
  %19 = load ptr, ptr %18, align 8
  tail call void %17(ptr noundef %19, ptr noundef nonnull %1, ptr noundef %2) #7
  br label %20

20:                                               ; preds = %15, %9, %5
  ret void
}